ccopy_reg
_reconstructor
p0
(csklearn.linear_model.logistic
LogisticRegression
p1
c__builtin__
object
p2
Ntp3
Rp4
(dp5
S'warm_start'
p6
I00
sS'C'
p7
I1
sS'classes_'
p8
cnumpy.core.multiarray
_reconstruct
p9
(cnumpy
ndarray
p10
(I0
tp11
S'b'
p12
tp13
Rp14
(I1
(I2
tp15
cnumpy
dtype
p16
(S'i8'
p17
I0
I1
tp18
Rp19
(I3
S'<'
p20
NNNI-1
I-1
I0
tp21
bI00
S'\x00\x00\x00\x00\x00\x00\x00\x00\x01\x00\x00\x00\x00\x00\x00\x00'
p22
tp23
bsS'n_jobs'
p24
I1
sS'verbose'
p25
I0
sS'fit_intercept'
p26
I01
sS'max_iter'
p27
I100
sS'class_weight'
p28
NsS'n_iter_'
p29
g9
(g10
(I0
tp30
g12
tp31
Rp32
(I1
(I1
tp33
g16
(S'i4'
p34
I0
I1
tp35
Rp36
(I3
S'<'
p37
NNNI-1
I-1
I0
tp38
bI00
S'\x14\x00\x00\x00'
p39
tp40
bsS'intercept_'
p41
g9
(g10
(I0
tp42
g12
tp43
Rp44
(I1
(I1
tp45
g16
(S'f8'
p46
I0
I1
tp47
Rp48
(I3
S'<'
p49
NNNI-1
I-1
I0
tp50
bI00
S'_z-\xf3$\x90\xfc\xbf'
p51
tp52
bsS'penalty'
p53
S'l2'
p54
sS'multi_class'
p55
S'ovr'
p56
sS'random_state'
p57
NsS'_sklearn_version'
p58
S'0.18.1'
p59
sS'dual'
p60
I00
sS'tol'
p61
F0.0001
sS'coef_'
p62
g9
(g10
(I0
tp63
g12
tp64
Rp65
(I1
(I1
I10
tp66
g48
I01
S'\x03\xd9\xcd\xd1\x104\xb9\xbfK\xd1\xbe\xe0f\x83Z\xbf\x8aaV\xb5o\x84\x8c?o\xbbM5}\xe9\xab?\xa9#\xecpd\xe1\xb4?\\\x0e\xcc\x8cO\xe7\xb0?\xd2n\xaa\xb9w\x97\x81\xbfzdv\x90\x17\x93\xda\xbf*\x9c\xcdbc\xa8\xb5?\x01\xd1\xa9N\xf3U\x91?'
p67
tp68
bsS'solver'
p69
S'liblinear'
p70
sS'intercept_scaling'
p71
I1
sb.